target datalayout = "e-m:e-p270:32:32-p271:32:32-p272:64:64-i64:64-i128:128-f80:128-n8:16:32:64-S128"
target triple = "x86_64-pc-linux-gnu"

%struct.mbedtls_ssl_context = type { ptr, i32, i32, i32, i32, i32, ptr, ptr, ptr, ptr, ptr, ptr, ptr, ptr, ptr, ptr, ptr, ptr, ptr, ptr, ptr, ptr, ptr, ptr, ptr, ptr, ptr, ptr, ptr, ptr, ptr, ptr, ptr, i32, i64, i64, i16, i64, i64, i64, i64, i32, i32, i8, i8, i32, i8, ptr, ptr, ptr, ptr, ptr, ptr, ptr, i32, i64, i64, [8 x i8], i16, ptr, ptr, ptr, i64, i32, i64, [12 x i8], [12 x i8], [32 x i8], i8, i8, ptr, ptr, %union.mbedtls_ssl_user_data_t }
%union.mbedtls_ssl_user_data_t = type { i64 }
%struct.mbedtls_ssl_config = type { i32, i32, i8, i8, i8, i8, i8, i8, i8, i8, i8, i8, i16, i8, i8, i8, ptr, i32, ptr, ptr, ptr, ptr, ptr, ptr, ptr, ptr, ptr, ptr, ptr, ptr, ptr, ptr, ptr, ptr, ptr, ptr, ptr, i64, ptr, ptr, ptr, ptr, ptr, ptr, ptr, ptr, %struct.mbedtls_mpi, %struct.mbedtls_mpi, ptr, i64, ptr, i64, ptr, i32, i32, i32, i32, [8 x i8], i32, i32, %union.mbedtls_ssl_user_data_t, ptr, ptr }
%struct.mbedtls_mpi = type { ptr, i16, i16 }
%struct.mbedtls_ssl_handshake_params = type { i8, i8, i8, i8, i8, i32, i8, i8, i8, i8, ptr, ptr, ptr, ptr, ptr, i8, i8, i8, i8, i16, i16, [20 x i16], ptr, ptr, %struct.mbedtls_dhm_context, %struct.mbedtls_ecdh_context, i16, i64, i32, i8, [1024 x i8], i64, ptr, ptr, i64, i16, ptr, ptr, ptr, ptr, %struct.anon, ptr, i16, i8, i32, i32, i32, ptr, ptr, ptr, i32, ptr, [8 x i8], i8, [32 x i8], i8, i16, %struct.mbedtls_md_context_t, %struct.mbedtls_md_context_t, i16, i8, %union.anon.1, [64 x i8], [1076 x i8], i64, i32, i32, i8, ptr, ptr, %union.anon.4, %struct.mbedtls_ssl_tls13_handshake_secrets, ptr, i64, ptr }
%struct.mbedtls_dhm_context = type { %struct.mbedtls_mpi, %struct.mbedtls_mpi, %struct.mbedtls_mpi, %struct.mbedtls_mpi, %struct.mbedtls_mpi, %struct.mbedtls_mpi, %struct.mbedtls_mpi, %struct.mbedtls_mpi, %struct.mbedtls_mpi, %struct.mbedtls_mpi }
%struct.mbedtls_ecdh_context = type { i8, i32, i32, %union.anon }
%union.anon = type { %struct.mbedtls_ecdh_context_mbed }
%struct.mbedtls_ecdh_context_mbed = type { %struct.mbedtls_ecp_group, %struct.mbedtls_mpi, %struct.mbedtls_ecp_point, %struct.mbedtls_ecp_point, %struct.mbedtls_mpi }
%struct.mbedtls_ecp_group = type { i32, %struct.mbedtls_mpi, %struct.mbedtls_mpi, %struct.mbedtls_mpi, %struct.mbedtls_ecp_point, %struct.mbedtls_mpi, i64, i64, i32, ptr, ptr, ptr, ptr, ptr, i64 }
%struct.mbedtls_ecp_point = type { %struct.mbedtls_mpi, %struct.mbedtls_mpi, %struct.mbedtls_mpi }
%struct.anon = type { i64, i8, [4 x %struct.mbedtls_ssl_hs_buffer], %struct.anon.0 }
%struct.mbedtls_ssl_hs_buffer = type { i8, ptr, i64 }
%struct.anon.0 = type { ptr, i64, i32 }
%struct.mbedtls_md_context_t = type { ptr, ptr, ptr }
%union.anon.1 = type { %struct.anon.2 }
%struct.anon.2 = type { i8, [64 x i8], i64 }
%union.anon.4 = type { [64 x i8] }
%struct.mbedtls_ssl_tls13_handshake_secrets = type { [64 x i8], [64 x i8] }

@.str = private unnamed_addr constant [130 x i8] c"generated/home/dtcxzyw/WorkSpace/Projects/compilers/llvm-opt-benchmark/bench/lief/bench_build/mbed_src/library/ssl_tls12_server.c\00", align 1
@.str.8 = private unnamed_addr constant [25 x i8] c"bad client hello message\00", align 1

; Function Attrs: nounwind uwtable
define internal i32 @ssl_parse_extended_ms_ext(ptr noundef %0, ptr noundef %1, i64 noundef %2) #0 {
  %4 = alloca i32, align 4
  %5 = alloca ptr, align 8
  %6 = alloca ptr, align 8
  %7 = alloca i64, align 8
  store ptr %0, ptr %5, align 8, !tbaa !3
  store ptr %1, ptr %6, align 8, !tbaa !8
  store i64 %2, ptr %7, align 8, !tbaa !10
  %8 = load i64, ptr %7, align 8, !tbaa !10
  %9 = icmp ne i64 %8, 0
  br i1 %9, label %10, label %14

10:                                               ; preds = %3
  %11 = load ptr, ptr %5, align 8, !tbaa !3
  call void (ptr, i32, ptr, i32, ptr, ...) @mbedtls_debug_print_msg(ptr noundef %11, i32 noundef 1, ptr noundef @.str, i32 noundef 452, ptr noundef @.str.8)
  %12 = load ptr, ptr %5, align 8, !tbaa !3
  %13 = call i32 @mbedtls_ssl_send_alert_message(ptr noundef %12, i8 noundef zeroext 2, i8 noundef zeroext 50)
  store i32 -29440, ptr %4, align 4
  br label %28

14:                                               ; preds = %3
  %15 = load ptr, ptr %5, align 8, !tbaa !3
  %16 = getelementptr inbounds nuw %struct.mbedtls_ssl_context, ptr %15, i32 0, i32 0
  %17 = load ptr, ptr %16, align 8, !tbaa !12
  %18 = getelementptr inbounds nuw %struct.mbedtls_ssl_config, ptr %17, i32 0, i32 8
  %19 = load i8, ptr %18, align 2, !tbaa !149
  %20 = zext i8 %19 to i32
  %21 = icmp eq i32 %20, 1
  br i1 %21, label %22, label %27

22:                                               ; preds = %14
  %23 = load ptr, ptr %5, align 8, !tbaa !3
  %24 = getelementptr inbounds nuw %struct.mbedtls_ssl_context, ptr %23, i32 0, i32 16
  %25 = load ptr, ptr %24, align 8, !tbaa !41
  %26 = getelementptr inbounds nuw %struct.mbedtls_ssl_handshake_params, ptr %25, i32 0, i32 6
  store i8 1, ptr %26, align 4, !tbaa !150
  br label %27

27:                                               ; preds = %22, %14
  store i32 0, ptr %4, align 4
  br label %28

28:                                               ; preds = %27, %10
  %29 = load i32, ptr %4, align 4
  ret i32 %29
}