; Function Attrs: nounwind uwtable
define internal fastcc range(i32 -29440, 1) i32 @ssl_parse_extended_ms_ext(ptr noundef %0, i64 noundef range(i64 0, 65536) %1) unnamed_addr #5 {
  %.not = icmp eq i64 %1, 0
  br i1 %.not, label %5, label %3

3:                                                ; preds = %2
  tail call void (ptr, i32, ptr, i32, ptr, ...) @mbedtls_debug_print_msg(ptr noundef %0, i32 noundef 1, ptr noundef nonnull @.str, i32 noundef 452, ptr noundef nonnull @.str.8) #12
  %4 = tail call i32 @mbedtls_ssl_send_alert_message(ptr noundef %0, i8 noundef zeroext 2, i8 noundef zeroext 50) #12
  br label %14

5:                                                ; preds = %2
  %6 = load ptr, ptr %0, align 8, !tbaa !3
  %7 = getelementptr inbounds nuw i8, ptr %6, i64 14
  %8 = load i8, ptr %7, align 2, !tbaa !163
  %9 = icmp eq i8 %8, 1
  br i1 %9, label %10, label %14

10:                                               ; preds = %5
  %11 = getelementptr inbounds nuw i8, ptr %0, i64 112
  %12 = load ptr, ptr %11, align 8, !tbaa !45
  %13 = getelementptr inbounds nuw i8, ptr %12, i64 12
  store i8 1, ptr %13, align 4, !tbaa !109
  br label %14

14:                                               ; preds = %5, %10, %3
  %.0 = phi i32 [ -29440, %3 ], [ 0, %10 ], [ 0, %5 ]
  ret i32 %.0
}